; Function Attrs: mustprogress uwtable
define noundef double @_ZNK8QuantLib37AnalyticContinuousFixedLookbackEngine1CEd(ptr nocapture noundef nonnull readonly align 8 dereferenceable(424) %this, double noundef %eta) local_unnamed_addr #8 align 2 {
entry:
  %call = tail call noundef double @_ZNK8QuantLib37AnalyticContinuousFixedLookbackEngine16riskFreeDiscountEv(ptr noundef nonnull align 8 dereferenceable(424) %this)
  %minmax.i = getelementptr inbounds nuw i8, ptr %this, i64 152
  %0 = load double, ptr %minmax.i, align 8, !tbaa !71
  %call3 = tail call noundef double @_ZNK8QuantLib37AnalyticContinuousFixedLookbackEngine6strikeEv(ptr noundef nonnull align 8 dereferenceable(424) %this)
  %sub = fsub double %0, %call3
  %mul = fmul double %call, %sub
  %mul4 = fmul double %eta, %mul
  ret double %mul4
}